target datalayout = "e-m:e-p270:32:32-p271:32:32-p272:64:64-i64:64-i128:128-f80:128-n8:16:32:64-S128"
target triple = "x86_64-pc-linux-gnu"

%struct._typeobject = type { %struct.PyVarObject, ptr, i64, i64, ptr, i64, ptr, ptr, ptr, ptr, ptr, ptr, ptr, ptr, ptr, ptr, ptr, ptr, ptr, i64, ptr, ptr, ptr, ptr, i64, ptr, ptr, ptr, ptr, ptr, ptr, ptr, ptr, ptr, i64, ptr, ptr, ptr, ptr, ptr, ptr, ptr, ptr, ptr, ptr, ptr, i32, ptr, ptr, i8, i16 }
%struct.PyVarObject = type { %struct._object, i64 }
%struct._object = type { %union.anon.58, ptr }
%union.anon.58 = type { i64 }
%struct._expr = type { i32, %union.anon.30, i32, i32, i32, i32 }
%union.anon.30 = type { %struct.anon.33 }
%struct.anon.33 = type { ptr, i32, ptr }
%struct.anon.34 = type { i32, ptr }
%struct.anon.50 = type { ptr, ptr }

@PyUnicode_Type = external global %struct._typeobject, align 8
@PyExc_ValueError = external global ptr, align 8
@PyLong_Type = external global %struct._typeobject, align 8
@PyFloat_Type = external global %struct._typeobject, align 8
@PyBytes_Type = external global %struct._typeobject, align 8
@PyComplex_Type = external global %struct._typeobject, align 8
@.str.56 = private unnamed_addr constant [48 x i8] c"unexpected constant inside of a literal pattern\00", align 1
@.str.57 = private unnamed_addr constant [55 x i8] c"patterns may only match literals and attribute lookups\00", align 1

; Function Attrs: nounwind uwtable
define internal i32 @ensure_literal_number(ptr noundef %0, i1 noundef zeroext %1, i1 noundef zeroext %2) #0 {
  %4 = alloca ptr, align 8
  %5 = alloca i8, align 1
  %6 = alloca i8, align 1
  %7 = alloca ptr, align 8
  store ptr %0, ptr %4, align 8, !tbaa !41
  %8 = zext i1 %1 to i8
  store i8 %8, ptr %5, align 1, !tbaa !130
  %9 = zext i1 %2 to i8
  store i8 %9, ptr %6, align 1, !tbaa !130
  call void @llvm.lifetime.start.p0(i64 8, ptr %7) #6
  %10 = load ptr, ptr %4, align 8, !tbaa !41
  %11 = getelementptr inbounds nuw %struct._expr, ptr %10, i32 0, i32 1
  %12 = getelementptr inbounds nuw %struct.anon.50, ptr %11, i32 0, i32 0
  %13 = load ptr, ptr %12, align 8, !tbaa !29
  store ptr %13, ptr %7, align 8, !tbaa !30
  %14 = load i8, ptr %5, align 1, !tbaa !130, !range !132, !noundef !133
  %15 = trunc i8 %14 to i1
  br i1 %15, label %16, label %20

16:                                               ; preds = %3
  %17 = load ptr, ptr %7, align 8, !tbaa !30
  %18 = call i32 @Py_IS_TYPE(ptr noundef %17, ptr noundef @PyFloat_Type)
  %19 = icmp ne i32 %18, 0
  br i1 %19, label %36, label %20

20:                                               ; preds = %16, %3
  %21 = load i8, ptr %5, align 1, !tbaa !130, !range !132, !noundef !133
  %22 = trunc i8 %21 to i1
  br i1 %22, label %23, label %27

23:                                               ; preds = %20
  %24 = load ptr, ptr %7, align 8, !tbaa !30
  %25 = call i32 @Py_IS_TYPE(ptr noundef %24, ptr noundef @PyLong_Type)
  %26 = icmp ne i32 %25, 0
  br i1 %26, label %36, label %27

27:                                               ; preds = %23, %20
  %28 = load i8, ptr %6, align 1, !tbaa !130, !range !132, !noundef !133
  %29 = trunc i8 %28 to i1
  br i1 %29, label %30, label %34

30:                                               ; preds = %27
  %31 = load ptr, ptr %7, align 8, !tbaa !30
  %32 = call i32 @Py_IS_TYPE(ptr noundef %31, ptr noundef @PyComplex_Type)
  %33 = icmp ne i32 %32, 0
  br label %34

34:                                               ; preds = %30, %27
  %35 = phi i1 [ false, %27 ], [ %33, %30 ]
  br label %36

36:                                               ; preds = %34, %23, %16
  %37 = phi i1 [ true, %23 ], [ true, %16 ], [ %35, %34 ]
  %38 = zext i1 %37 to i32
  call void @llvm.lifetime.end.p0(i64 8, ptr %7) #6
  ret i32 %38
}

; Function Attrs: inlinehint nounwind uwtable
define internal ptr @_Py_TYPE(ptr noundef %0) #2 {
  %2 = alloca ptr, align 8
  store ptr %0, ptr %2, align 8, !tbaa !30
  %3 = load ptr, ptr %2, align 8, !tbaa !30
  %4 = getelementptr inbounds nuw %struct._object, ptr %3, i32 0, i32 1
  %5 = load ptr, ptr %4, align 8, !tbaa !141
  ret ptr %5
}

; Function Attrs: nounwind uwtable
define internal i32 @ensure_literal_complex(ptr noundef %0) #0 {
  %2 = alloca i32, align 4
  %3 = alloca ptr, align 8
  %4 = alloca ptr, align 8
  %5 = alloca ptr, align 8
  %6 = alloca i32, align 4
  store ptr %0, ptr %3, align 8, !tbaa !41
  call void @llvm.lifetime.start.p0(i64 8, ptr %4) #6
  %7 = load ptr, ptr %3, align 8, !tbaa !41
  %8 = getelementptr inbounds nuw %struct._expr, ptr %7, i32 0, i32 1
  %9 = getelementptr inbounds nuw %struct.anon.33, ptr %8, i32 0, i32 0
  %10 = load ptr, ptr %9, align 8, !tbaa !29
  store ptr %10, ptr %4, align 8, !tbaa !41
  call void @llvm.lifetime.start.p0(i64 8, ptr %5) #6
  %11 = load ptr, ptr %3, align 8, !tbaa !41
  %12 = getelementptr inbounds nuw %struct._expr, ptr %11, i32 0, i32 1
  %13 = getelementptr inbounds nuw %struct.anon.33, ptr %12, i32 0, i32 2
  %14 = load ptr, ptr %13, align 8, !tbaa !29
  store ptr %14, ptr %5, align 8, !tbaa !41
  %15 = load ptr, ptr %3, align 8, !tbaa !41
  %16 = getelementptr inbounds nuw %struct._expr, ptr %15, i32 0, i32 1
  %17 = getelementptr inbounds nuw %struct.anon.33, ptr %16, i32 0, i32 1
  %18 = load i32, ptr %17, align 8, !tbaa !29
  %19 = icmp ne i32 %18, 1
  br i1 %19, label %20, label %27

20:                                               ; preds = %1
  %21 = load ptr, ptr %3, align 8, !tbaa !41
  %22 = getelementptr inbounds nuw %struct._expr, ptr %21, i32 0, i32 1
  %23 = getelementptr inbounds nuw %struct.anon.33, ptr %22, i32 0, i32 1
  %24 = load i32, ptr %23, align 8, !tbaa !29
  %25 = icmp ne i32 %24, 2
  br i1 %25, label %26, label %27

26:                                               ; preds = %20
  store i32 0, ptr %2, align 4
  store i32 1, ptr %6, align 4
  br label %56

27:                                               ; preds = %20, %1
  %28 = load ptr, ptr %4, align 8, !tbaa !41
  %29 = getelementptr inbounds nuw %struct._expr, ptr %28, i32 0, i32 0
  %30 = load i32, ptr %29, align 8, !tbaa !48
  switch i32 %30, label %43 [
    i32 20, label %31
    i32 4, label %37
  ]

31:                                               ; preds = %27
  %32 = load ptr, ptr %4, align 8, !tbaa !41
  %33 = call i32 @ensure_literal_number(ptr noundef %32, i1 noundef zeroext true, i1 noundef zeroext false)
  %34 = icmp ne i32 %33, 0
  br i1 %34, label %36, label %35

35:                                               ; preds = %31
  store i32 0, ptr %2, align 4
  store i32 1, ptr %6, align 4
  br label %56

36:                                               ; preds = %31
  br label %44

37:                                               ; preds = %27
  %38 = load ptr, ptr %4, align 8, !tbaa !41
  %39 = call i32 @ensure_literal_negative(ptr noundef %38, i1 noundef zeroext true, i1 noundef zeroext false)
  %40 = icmp ne i32 %39, 0
  br i1 %40, label %42, label %41

41:                                               ; preds = %37
  store i32 0, ptr %2, align 4
  store i32 1, ptr %6, align 4
  br label %56

42:                                               ; preds = %37
  br label %44

43:                                               ; preds = %27
  store i32 0, ptr %2, align 4
  store i32 1, ptr %6, align 4
  br label %56

44:                                               ; preds = %42, %36
  %45 = load ptr, ptr %5, align 8, !tbaa !41
  %46 = getelementptr inbounds nuw %struct._expr, ptr %45, i32 0, i32 0
  %47 = load i32, ptr %46, align 8, !tbaa !48
  switch i32 %47, label %54 [
    i32 20, label %48
  ]

48:                                               ; preds = %44
  %49 = load ptr, ptr %5, align 8, !tbaa !41
  %50 = call i32 @ensure_literal_number(ptr noundef %49, i1 noundef zeroext false, i1 noundef zeroext true)
  %51 = icmp ne i32 %50, 0
  br i1 %51, label %53, label %52

52:                                               ; preds = %48
  store i32 0, ptr %2, align 4
  store i32 1, ptr %6, align 4
  br label %56

53:                                               ; preds = %48
  br label %55

54:                                               ; preds = %44
  store i32 0, ptr %2, align 4
  store i32 1, ptr %6, align 4
  br label %56

55:                                               ; preds = %53
  store i32 1, ptr %2, align 4
  store i32 1, ptr %6, align 4
  br label %56

56:                                               ; preds = %55, %54, %52, %43, %41, %35, %26
  call void @llvm.lifetime.end.p0(i64 8, ptr %5) #6
  call void @llvm.lifetime.end.p0(i64 8, ptr %4) #6
  %57 = load i32, ptr %2, align 4
  ret i32 %57
}

; Function Attrs: nounwind uwtable
define internal i32 @ensure_literal_negative(ptr noundef %0, i1 noundef zeroext %1, i1 noundef zeroext %2) #0 {
  %4 = alloca i32, align 4
  %5 = alloca ptr, align 8
  %6 = alloca i8, align 1
  %7 = alloca i8, align 1
  %8 = alloca ptr, align 8
  %9 = alloca i32, align 4
  store ptr %0, ptr %5, align 8, !tbaa !41
  %10 = zext i1 %1 to i8
  store i8 %10, ptr %6, align 1, !tbaa !130
  %11 = zext i1 %2 to i8
  store i8 %11, ptr %7, align 1, !tbaa !130
  %12 = load ptr, ptr %5, align 8, !tbaa !41
  %13 = getelementptr inbounds nuw %struct._expr, ptr %12, i32 0, i32 1
  %14 = getelementptr inbounds nuw %struct.anon.34, ptr %13, i32 0, i32 0
  %15 = load i32, ptr %14, align 8, !tbaa !29
  %16 = icmp ne i32 %15, 4
  br i1 %16, label %17, label %18

17:                                               ; preds = %3
  store i32 0, ptr %4, align 4
  br label %36

18:                                               ; preds = %3
  call void @llvm.lifetime.start.p0(i64 8, ptr %8) #6
  %19 = load ptr, ptr %5, align 8, !tbaa !41
  %20 = getelementptr inbounds nuw %struct._expr, ptr %19, i32 0, i32 1
  %21 = getelementptr inbounds nuw %struct.anon.34, ptr %20, i32 0, i32 1
  %22 = load ptr, ptr %21, align 8, !tbaa !29
  store ptr %22, ptr %8, align 8, !tbaa !41
  %23 = load ptr, ptr %8, align 8, !tbaa !41
  %24 = getelementptr inbounds nuw %struct._expr, ptr %23, i32 0, i32 0
  %25 = load i32, ptr %24, align 8, !tbaa !48
  %26 = icmp ne i32 %25, 20
  br i1 %26, label %27, label %28

27:                                               ; preds = %18
  store i32 0, ptr %4, align 4
  store i32 1, ptr %9, align 4
  br label %35

28:                                               ; preds = %18
  %29 = load ptr, ptr %8, align 8, !tbaa !41
  %30 = load i8, ptr %6, align 1, !tbaa !130, !range !132, !noundef !133
  %31 = trunc i8 %30 to i1
  %32 = load i8, ptr %7, align 1, !tbaa !130, !range !132, !noundef !133
  %33 = trunc i8 %32 to i1
  %34 = call i32 @ensure_literal_number(ptr noundef %29, i1 noundef zeroext %31, i1 noundef zeroext %33)
  store i32 %34, ptr %4, align 4
  store i32 1, ptr %9, align 4
  br label %35

35:                                               ; preds = %28, %27
  call void @llvm.lifetime.end.p0(i64 8, ptr %8) #6
  br label %36

36:                                               ; preds = %35, %17
  %37 = load i32, ptr %4, align 4
  ret i32 %37
}

; Function Attrs: inlinehint nounwind uwtable
define internal i32 @Py_IS_TYPE(ptr noundef %0, ptr noundef %1) #2 {
  %3 = alloca ptr, align 8
  %4 = alloca ptr, align 8
  store ptr %0, ptr %3, align 8, !tbaa !30
  store ptr %1, ptr %4, align 8, !tbaa !52
  %5 = load ptr, ptr %3, align 8, !tbaa !30
  %6 = call ptr @_Py_TYPE(ptr noundef %5)
  %7 = load ptr, ptr %4, align 8, !tbaa !52
  %8 = icmp eq ptr %6, %7
  %9 = zext i1 %8 to i32
  ret i32 %9
}

; Function Attrs: nounwind uwtable
define internal i32 @validate_pattern_match_value(ptr noundef %0, ptr noundef %1) #0 {
  %3 = alloca i32, align 4
  %4 = alloca ptr, align 8
  %5 = alloca ptr, align 8
  %6 = alloca ptr, align 8
  store ptr %0, ptr %4, align 8, !tbaa !31
  store ptr %1, ptr %5, align 8, !tbaa !41
  %7 = load ptr, ptr %4, align 8, !tbaa !31
  %8 = load ptr, ptr %5, align 8, !tbaa !41
  %9 = call i32 @validate_expr(ptr noundef %7, ptr noundef %8, i32 noundef 1)
  %10 = icmp ne i32 %9, 0
  br i1 %10, label %12, label %11

11:                                               ; preds = %2
  store i32 0, ptr %3, align 4
  br label %66

12:                                               ; preds = %2
  %13 = load ptr, ptr %5, align 8, !tbaa !41
  %14 = getelementptr inbounds nuw %struct._expr, ptr %13, i32 0, i32 0
  %15 = load i32, ptr %14, align 8, !tbaa !48
  switch i32 %15, label %63 [
    i32 20, label %16
    i32 21, label %49
    i32 4, label %50
    i32 3, label %56
    i32 19, label %62
  ]

16:                                               ; preds = %12
  %17 = load ptr, ptr %4, align 8, !tbaa !31
  %18 = load ptr, ptr %5, align 8, !tbaa !41
  %19 = call i32 @validate_expr(ptr noundef %17, ptr noundef %18, i32 noundef 1)
  %20 = icmp ne i32 %19, 0
  br i1 %20, label %22, label %21

21:                                               ; preds = %16
  store i32 0, ptr %3, align 4
  br label %66

22:                                               ; preds = %16
  %23 = load ptr, ptr %5, align 8, !tbaa !41
  %24 = getelementptr inbounds nuw %struct._expr, ptr %23, i32 0, i32 1
  %25 = getelementptr inbounds nuw %struct.anon.50, ptr %24, i32 0, i32 0
  %26 = load ptr, ptr %25, align 8, !tbaa !29
  store ptr %26, ptr %6, align 8, !tbaa !30
  %27 = load ptr, ptr %6, align 8, !tbaa !30
  %28 = call i32 @Py_IS_TYPE(ptr noundef %27, ptr noundef @PyLong_Type)
  %29 = icmp ne i32 %28, 0
  br i1 %29, label %46, label %30

30:                                               ; preds = %22
  %31 = load ptr, ptr %6, align 8, !tbaa !30
  %32 = call i32 @Py_IS_TYPE(ptr noundef %31, ptr noundef @PyFloat_Type)
  %33 = icmp ne i32 %32, 0
  br i1 %33, label %46, label %34

34:                                               ; preds = %30
  %35 = load ptr, ptr %6, align 8, !tbaa !30
  %36 = call i32 @Py_IS_TYPE(ptr noundef %35, ptr noundef @PyBytes_Type)
  %37 = icmp ne i32 %36, 0
  br i1 %37, label %46, label %38

38:                                               ; preds = %34
  %39 = load ptr, ptr %6, align 8, !tbaa !30
  %40 = call i32 @Py_IS_TYPE(ptr noundef %39, ptr noundef @PyComplex_Type)
  %41 = icmp ne i32 %40, 0
  br i1 %41, label %46, label %42

42:                                               ; preds = %38
  %43 = load ptr, ptr %6, align 8, !tbaa !30
  %44 = call i32 @Py_IS_TYPE(ptr noundef %43, ptr noundef @PyUnicode_Type)
  %45 = icmp ne i32 %44, 0
  br i1 %45, label %46, label %47

46:                                               ; preds = %42, %38, %34, %30, %22
  store i32 1, ptr %3, align 4
  br label %66

47:                                               ; preds = %42
  %48 = load ptr, ptr @PyExc_ValueError, align 8, !tbaa !30
  call void @PyErr_SetString(ptr noundef %48, ptr noundef @.str.56)
  store i32 0, ptr %3, align 4
  br label %66

49:                                               ; preds = %12
  store i32 1, ptr %3, align 4
  br label %66

50:                                               ; preds = %12
  %51 = load ptr, ptr %5, align 8, !tbaa !41
  %52 = call i32 @ensure_literal_negative(ptr noundef %51, i1 noundef zeroext true, i1 noundef zeroext true)
  %53 = icmp ne i32 %52, 0
  br i1 %53, label %54, label %55

54:                                               ; preds = %50
  store i32 1, ptr %3, align 4
  br label %66

55:                                               ; preds = %50
  br label %64

56:                                               ; preds = %12
  %57 = load ptr, ptr %5, align 8, !tbaa !41
  %58 = call i32 @ensure_literal_complex(ptr noundef %57)
  %59 = icmp ne i32 %58, 0
  br i1 %59, label %60, label %61

60:                                               ; preds = %56
  store i32 1, ptr %3, align 4
  br label %66

61:                                               ; preds = %56
  br label %64

62:                                               ; preds = %12
  store i32 1, ptr %3, align 4
  br label %66

63:                                               ; preds = %12
  br label %64

64:                                               ; preds = %63, %61, %55
  %65 = load ptr, ptr @PyExc_ValueError, align 8, !tbaa !30
  call void @PyErr_SetString(ptr noundef %65, ptr noundef @.str.57)
  store i32 0, ptr %3, align 4
  br label %66

66:                                               ; preds = %64, %62, %60, %54, %49, %47, %46, %21, %11
  %67 = load i32, ptr %3, align 4
  ret i32 %67
}