; Function Attrs: nounwind uwtable
define internal fastcc range(i32 0, 2) i32 @validate_pattern_match_value(ptr noundef nonnull captures(none) %0, ptr noundef %1) unnamed_addr #0 {
  %3 = tail call fastcc i32 @validate_expr(ptr noundef %0, ptr noundef %1, i32 noundef 1)
  %.not = icmp eq i32 %3, 0
  br i1 %.not, label %ensure_literal_negative.exit.thread32, label %4

4:                                                ; preds = %2
  %5 = load i32, ptr %1, align 8, !tbaa !49
  switch i32 %5, label %ensure_literal_negative.exit.thread32.sink.split [
    i32 20, label %6
    i32 21, label %ensure_literal_negative.exit.thread32
    i32 4, label %12
    i32 3, label %23
    i32 19, label %ensure_literal_negative.exit.thread32
  ]

6:                                                ; preds = %4
  %7 = tail call fastcc i32 @validate_expr(ptr noundef %0, ptr noundef nonnull %1, i32 noundef 1)
  %.not15 = icmp eq i32 %7, 0
  br i1 %.not15, label %ensure_literal_negative.exit.thread32, label %8

8:                                                ; preds = %6
  %9 = getelementptr inbounds nuw i8, ptr %1, i64 8
  %10 = load ptr, ptr %9, align 8, !tbaa !26
  %11 = getelementptr i8, ptr %10, i64 8
  %.val24 = load ptr, ptr %11, align 8, !tbaa !80
  %.not38 = icmp eq ptr %.val24, @PyLong_Type
  %.not39 = icmp eq ptr %.val24, @PyFloat_Type
  %or.cond = or i1 %.not38, %.not39
  %.not40 = icmp eq ptr %.val24, @PyBytes_Type
  %or.cond43 = or i1 %.not40, %or.cond
  %.not41 = icmp eq ptr %.val24, @PyComplex_Type
  %or.cond44 = or i1 %.not41, %or.cond43
  %.not42 = icmp eq ptr %.val24, @PyUnicode_Type
  %or.cond45 = or i1 %.not42, %or.cond44
  br i1 %or.cond45, label %ensure_literal_negative.exit.thread32, label %ensure_literal_negative.exit.thread32.sink.split

12:                                               ; preds = %4
  %13 = getelementptr inbounds nuw i8, ptr %1, i64 8
  %14 = load i32, ptr %13, align 8, !tbaa !26
  %.not.i = icmp eq i32 %14, 4
  br i1 %.not.i, label %15, label %ensure_literal_negative.exit.thread32.sink.split

15:                                               ; preds = %12
  %16 = getelementptr inbounds nuw i8, ptr %1, i64 16
  %17 = load ptr, ptr %16, align 8, !tbaa !26
  %18 = load i32, ptr %17, align 8, !tbaa !49
  %.not6.i = icmp eq i32 %18, 20
  br i1 %.not6.i, label %19, label %ensure_literal_negative.exit.thread32.sink.split

19:                                               ; preds = %15
  %20 = getelementptr i8, ptr %17, i64 8
  %.val.i = load ptr, ptr %20, align 8, !tbaa !26
  %21 = getelementptr i8, ptr %.val.i, i64 8
  %.val9.i.i = load ptr, ptr %21, align 8, !tbaa !80
  %.not.i.i = icmp eq ptr %.val9.i.i, @PyFloat_Type
  br i1 %.not.i.i, label %ensure_literal_negative.exit.thread32, label %ensure_literal_negative.exit

ensure_literal_negative.exit:                     ; preds = %19
  %.not1.i.i.not = icmp ne ptr %.val9.i.i, @PyLong_Type
  %22 = icmp ne ptr %.val9.i.i, @PyComplex_Type
  %spec.select.i.not = and i1 %.not1.i.i.not, %22
  br i1 %spec.select.i.not, label %ensure_literal_negative.exit.thread32.sink.split, label %ensure_literal_negative.exit.thread32

23:                                               ; preds = %4
  %24 = getelementptr inbounds nuw i8, ptr %1, i64 8
  %25 = load ptr, ptr %24, align 8, !tbaa !26
  %26 = getelementptr inbounds nuw i8, ptr %1, i64 24
  %27 = load ptr, ptr %26, align 8, !tbaa !26
  %28 = getelementptr inbounds nuw i8, ptr %1, i64 16
  %29 = load i32, ptr %28, align 8, !tbaa !26
  %.off.i = add i32 %29, -1
  %switch.i = icmp ult i32 %.off.i, 2
  br i1 %switch.i, label %30, label %ensure_literal_negative.exit.thread32.sink.split

30:                                               ; preds = %23
  %31 = load i32, ptr %25, align 8, !tbaa !49
  switch i32 %31, label %ensure_literal_negative.exit.thread32.sink.split [
    i32 20, label %32
    i32 4, label %35
  ]

32:                                               ; preds = %30
  %33 = getelementptr i8, ptr %25, i64 8
  %.val.i27 = load ptr, ptr %33, align 8, !tbaa !26
  %34 = getelementptr i8, ptr %.val.i27, i64 8
  %.val9.i.i28 = load ptr, ptr %34, align 8, !tbaa !80
  %.not.i.i29 = icmp eq ptr %.val9.i.i28, @PyFloat_Type
  %.not1.i.not.not.i = icmp eq ptr %.val9.i.i28, @PyLong_Type
  %or.cond.i = or i1 %.not.i.i29, %.not1.i.not.not.i
  br i1 %or.cond.i, label %ensure_literal_number.exit.thread.i, label %ensure_literal_negative.exit.thread32.sink.split

35:                                               ; preds = %30
  %36 = getelementptr inbounds nuw i8, ptr %25, i64 8
  %37 = load i32, ptr %36, align 8, !tbaa !26
  %.not.i15.i = icmp eq i32 %37, 4
  br i1 %.not.i15.i, label %38, label %ensure_literal_negative.exit.thread32.sink.split

38:                                               ; preds = %35
  %39 = getelementptr inbounds nuw i8, ptr %25, i64 16
  %40 = load ptr, ptr %39, align 8, !tbaa !26
  %41 = load i32, ptr %40, align 8, !tbaa !49
  %.not6.i.i = icmp eq i32 %41, 20
  br i1 %.not6.i.i, label %42, label %ensure_literal_negative.exit.thread32.sink.split

42:                                               ; preds = %38
  %43 = getelementptr i8, ptr %40, i64 8
  %.val.i.i = load ptr, ptr %43, align 8, !tbaa !26
  %44 = getelementptr i8, ptr %.val.i.i, i64 8
  %.val9.i.i.i = load ptr, ptr %44, align 8, !tbaa !80
  %.not.i.i.i = icmp eq ptr %.val9.i.i.i, @PyFloat_Type
  %.not1.i.i.not.not.i = icmp eq ptr %.val9.i.i.i, @PyLong_Type
  %or.cond25.i = or i1 %.not.i.i.i, %.not1.i.i.not.not.i
  br i1 %or.cond25.i, label %ensure_literal_number.exit.thread.i, label %ensure_literal_negative.exit.thread32.sink.split

ensure_literal_number.exit.thread.i:              ; preds = %42, %32
  %45 = load i32, ptr %27, align 8, !tbaa !49
  %cond.i = icmp eq i32 %45, 20
  br i1 %cond.i, label %ensure_literal_complex.exit, label %ensure_literal_negative.exit.thread32.sink.split

ensure_literal_complex.exit:                      ; preds = %ensure_literal_number.exit.thread.i
  %46 = getelementptr i8, ptr %27, i64 8
  %.val14.i = load ptr, ptr %46, align 8, !tbaa !26
  %.phi.trans.insert.i.i = getelementptr i8, ptr %.val14.i, i64 8
  %.val.pre.i.i = load ptr, ptr %.phi.trans.insert.i.i, align 8, !tbaa !80
  %.not.i26.not = icmp eq ptr %.val.pre.i.i, @PyComplex_Type
  br i1 %.not.i26.not, label %ensure_literal_negative.exit.thread32, label %ensure_literal_negative.exit.thread32.sink.split

ensure_literal_negative.exit.thread32.sink.split: ; preds = %ensure_literal_negative.exit, %ensure_literal_complex.exit, %4, %12, %15, %23, %30, %ensure_literal_number.exit.thread.i, %35, %38, %32, %42, %8
  %.str.57.sink = phi ptr [ @.str.56, %8 ], [ @.str.57, %42 ], [ @.str.57, %32 ], [ @.str.57, %38 ], [ @.str.57, %35 ], [ @.str.57, %ensure_literal_number.exit.thread.i ], [ @.str.57, %30 ], [ @.str.57, %23 ], [ @.str.57, %15 ], [ @.str.57, %12 ], [ @.str.57, %4 ], [ @.str.57, %ensure_literal_complex.exit ], [ @.str.57, %ensure_literal_negative.exit ]
  %47 = load ptr, ptr @PyExc_ValueError, align 8, !tbaa !33
  tail call void @PyErr_SetString(ptr noundef %47, ptr noundef nonnull %.str.57.sink) #5
  br label %ensure_literal_negative.exit.thread32

ensure_literal_negative.exit.thread32:            ; preds = %ensure_literal_negative.exit.thread32.sink.split, %19, %ensure_literal_complex.exit, %ensure_literal_negative.exit, %4, %4, %8, %6, %2
  %.0 = phi i32 [ 0, %2 ], [ 0, %6 ], [ 1, %8 ], [ 1, %4 ], [ 1, %4 ], [ 1, %ensure_literal_negative.exit ], [ 1, %ensure_literal_complex.exit ], [ 1, %19 ], [ 0, %ensure_literal_negative.exit.thread32.sink.split ]
  ret i32 %.0
}